target datalayout = "e-m:e-p270:32:32-p271:32:32-p272:64:64-i64:64-i128:128-f80:128-n8:16:32:64-S128"
target triple = "x86_64-unknown-linux-gnu"

%"class.cvc5::internal::String" = type { %"class.std::vector" }
%"class.std::vector" = type { %"struct.std::_Vector_base" }
%"struct.std::_Vector_base" = type { %"struct.std::_Vector_base<unsigned int, std::allocator<unsigned int>>::_Vector_impl" }
%"struct.std::_Vector_base<unsigned int, std::allocator<unsigned int>>::_Vector_impl" = type { %"struct.std::_Vector_base<unsigned int, std::allocator<unsigned int>>::_Vector_impl_data" }
%"struct.std::_Vector_base<unsigned int, std::allocator<unsigned int>>::_Vector_impl_data" = type { ptr, ptr, ptr }

; Function Attrs: mustprogress nounwind uwtable
define linkonce_odr hidden noundef i64 @_ZNKSt6vectorIjSaIjEE4sizeEv(ptr noundef nonnull align 8 dereferenceable(24) %this) #5 comdat align 2 {
entry:
  %this.addr = alloca ptr, align 8
  store ptr %this, ptr %this.addr, align 8
  %this1 = load ptr, ptr %this.addr, align 8
  %_M_impl = getelementptr inbounds %"struct.std::_Vector_base", ptr %this1, i32 0, i32 0
  %_M_finish = getelementptr inbounds %"struct.std::_Vector_base<unsigned int, std::allocator<unsigned int>>::_Vector_impl_data", ptr %_M_impl, i32 0, i32 1
  %0 = load ptr, ptr %_M_finish, align 8
  %_M_impl2 = getelementptr inbounds %"struct.std::_Vector_base", ptr %this1, i32 0, i32 0
  %_M_start = getelementptr inbounds %"struct.std::_Vector_base<unsigned int, std::allocator<unsigned int>>::_Vector_impl_data", ptr %_M_impl2, i32 0, i32 0
  %1 = load ptr, ptr %_M_start, align 8
  %sub.ptr.lhs.cast = ptrtoint ptr %0 to i64
  %sub.ptr.rhs.cast = ptrtoint ptr %1 to i64
  %sub.ptr.sub = sub i64 %sub.ptr.lhs.cast, %sub.ptr.rhs.cast
  %sub.ptr.div = sdiv exact i64 %sub.ptr.sub, 4
  ret i64 %sub.ptr.div
}

; Function Attrs: mustprogress nounwind uwtable
define linkonce_odr hidden noundef nonnull align 4 dereferenceable(4) ptr @_ZNKSt6vectorIjSaIjEEixEm(ptr noundef nonnull align 8 dereferenceable(24) %this, i64 noundef %__n) #5 comdat align 2 {
entry:
  %this.addr = alloca ptr, align 8
  %__n.addr = alloca i64, align 8
  store ptr %this, ptr %this.addr, align 8
  store i64 %__n, ptr %__n.addr, align 8
  %this1 = load ptr, ptr %this.addr, align 8
  %_M_impl = getelementptr inbounds %"struct.std::_Vector_base", ptr %this1, i32 0, i32 0
  %_M_start = getelementptr inbounds %"struct.std::_Vector_base<unsigned int, std::allocator<unsigned int>>::_Vector_impl_data", ptr %_M_impl, i32 0, i32 0
  %0 = load ptr, ptr %_M_start, align 8
  %1 = load i64, ptr %__n.addr, align 8
  %add.ptr = getelementptr inbounds i32, ptr %0, i64 %1
  ret ptr %add.ptr
}

; Function Attrs: mustprogress nounwind uwtable
define linkonce_odr hidden noundef i64 @_ZNK4cvc58internal6String4sizeEv(ptr noundef nonnull align 8 dereferenceable(24) %this) #5 comdat align 2 {
entry:
  %this.addr = alloca ptr, align 8
  store ptr %this, ptr %this.addr, align 8
  %this1 = load ptr, ptr %this.addr, align 8
  %d_str = getelementptr inbounds %"class.cvc5::internal::String", ptr %this1, i32 0, i32 0
  %call = call noundef i64 @_ZNKSt6vectorIjSaIjEE4sizeEv(ptr noundef nonnull align 8 dereferenceable(24) %d_str) #3
  ret i64 %call
}

; Function Attrs: mustprogress uwtable
define hidden noundef zeroext i1 @_ZNK4cvc58internal6String9hasSuffixERKS1_(ptr noundef nonnull align 8 dereferenceable(24) %this, ptr noundef nonnull align 8 dereferenceable(24) %y) #4 align 2 {
entry:
  %retval = alloca i1, align 1
  %this.addr = alloca ptr, align 8
  %y.addr = alloca ptr, align 8
  %s = alloca i64, align 8
  %ys = alloca i64, align 8
  %idiff = alloca i64, align 8
  %i = alloca i64, align 8
  store ptr %this, ptr %this.addr, align 8
  store ptr %y, ptr %y.addr, align 8
  %this1 = load ptr, ptr %this.addr, align 8
  %call = call noundef i64 @_ZNK4cvc58internal6String4sizeEv(ptr noundef nonnull align 8 dereferenceable(24) %this1)
  store i64 %call, ptr %s, align 8
  %0 = load ptr, ptr %y.addr, align 8
  %call2 = call noundef i64 @_ZNK4cvc58internal6String4sizeEv(ptr noundef nonnull align 8 dereferenceable(24) %0)
  store i64 %call2, ptr %ys, align 8
  %1 = load i64, ptr %ys, align 8
  %2 = load i64, ptr %s, align 8
  %cmp = icmp ugt i64 %1, %2
  br i1 %cmp, label %if.then, label %if.end

if.then:                                          ; preds = %entry
  store i1 false, ptr %retval, align 1
  br label %return

if.end:                                           ; preds = %entry
  %3 = load i64, ptr %s, align 8
  %4 = load i64, ptr %ys, align 8
  %sub = sub i64 %3, %4
  store i64 %sub, ptr %idiff, align 8
  store i64 0, ptr %i, align 8
  br label %for.cond

for.cond:                                         ; preds = %for.inc, %if.end
  %5 = load i64, ptr %i, align 8
  %6 = load i64, ptr %ys, align 8
  %cmp3 = icmp ult i64 %5, %6
  br i1 %cmp3, label %for.body, label %for.end

for.body:                                         ; preds = %for.cond
  %d_str = getelementptr inbounds %"class.cvc5::internal::String", ptr %this1, i32 0, i32 0
  %7 = load i64, ptr %i, align 8
  %8 = load i64, ptr %idiff, align 8
  %add = add i64 %7, %8
  %call4 = call noundef nonnull align 4 dereferenceable(4) ptr @_ZNKSt6vectorIjSaIjEEixEm(ptr noundef nonnull align 8 dereferenceable(24) %d_str, i64 noundef %add) #3
  %9 = load i32, ptr %call4, align 4
  %10 = load ptr, ptr %y.addr, align 8
  %d_str5 = getelementptr inbounds %"class.cvc5::internal::String", ptr %10, i32 0, i32 0
  %11 = load i64, ptr %i, align 8
  %call6 = call noundef nonnull align 4 dereferenceable(4) ptr @_ZNKSt6vectorIjSaIjEEixEm(ptr noundef nonnull align 8 dereferenceable(24) %d_str5, i64 noundef %11) #3
  %12 = load i32, ptr %call6, align 4
  %cmp7 = icmp ne i32 %9, %12
  br i1 %cmp7, label %if.then8, label %if.end9

if.then8:                                         ; preds = %for.body
  store i1 false, ptr %retval, align 1
  br label %return

if.end9:                                          ; preds = %for.body
  br label %for.inc

for.inc:                                          ; preds = %if.end9
  %13 = load i64, ptr %i, align 8
  %inc = add i64 %13, 1
  store i64 %inc, ptr %i, align 8
  br label %for.cond, !llvm.loop !19

for.end:                                          ; preds = %for.cond
  store i1 true, ptr %retval, align 1
  br label %return

return:                                           ; preds = %for.end, %if.then8, %if.then
  %14 = load i1, ptr %retval, align 1
  ret i1 %14
}