; Function Attrs: mustprogress nofree norecurse nosync nounwind willreturn memory(read, inaccessiblemem: none) uwtable
define hidden noundef zeroext i1 @_ZNK4cvc58internal6String9hasSuffixERKS1_(ptr nocapture noundef nonnull readonly align 8 dereferenceable(24) %this, ptr nocapture noundef nonnull readonly align 8 dereferenceable(24) %y) local_unnamed_addr #4 align 2 {
entry:
  %_M_finish.i.i = getelementptr inbounds i8, ptr %this, i64 8
  %0 = load ptr, ptr %_M_finish.i.i, align 8
  %1 = load ptr, ptr %this, align 8
  %sub.ptr.lhs.cast.i.i = ptrtoint ptr %0 to i64
  %sub.ptr.rhs.cast.i.i = ptrtoint ptr %1 to i64
  %sub.ptr.sub.i.i = sub i64 %sub.ptr.lhs.cast.i.i, %sub.ptr.rhs.cast.i.i
  %sub.ptr.div.i.i = ashr exact i64 %sub.ptr.sub.i.i, 2
  %_M_finish.i.i8 = getelementptr inbounds i8, ptr %y, i64 8
  %2 = load ptr, ptr %_M_finish.i.i8, align 8
  %3 = load ptr, ptr %y, align 8
  %sub.ptr.lhs.cast.i.i9 = ptrtoint ptr %2 to i64
  %sub.ptr.rhs.cast.i.i10 = ptrtoint ptr %3 to i64
  %sub.ptr.sub.i.i11 = sub i64 %sub.ptr.lhs.cast.i.i9, %sub.ptr.rhs.cast.i.i10
  %sub.ptr.div.i.i12 = ashr exact i64 %sub.ptr.sub.i.i11, 2
  %cmp = icmp ugt i64 %sub.ptr.div.i.i12, %sub.ptr.div.i.i
  br i1 %cmp, label %return, label %if.end

if.end:                                           ; preds = %entry
  %sub = sub nsw i64 %sub.ptr.div.i.i, %sub.ptr.div.i.i12
  %invariant.gep = getelementptr i32, ptr %1, i64 %sub
  %cmp314.not = icmp eq ptr %2, %3
  br i1 %cmp314.not, label %return, label %for.body.preheader

for.body.preheader:                               ; preds = %if.end
  %umax = tail call i64 @llvm.umax.i64(i64 %sub.ptr.div.i.i12, i64 1)
  br label %for.body

for.body:                                         ; preds = %for.body, %for.body.preheader
  %i.015 = phi i64 [ 0, %for.body.preheader ], [ %inc, %for.body ]
  %gep = getelementptr i32, ptr %invariant.gep, i64 %i.015
  %4 = load i32, ptr %gep, align 4
  %add.ptr.i13 = getelementptr inbounds i32, ptr %3, i64 %i.015
  %5 = load i32, ptr %add.ptr.i13, align 4
  %cmp7.not = icmp eq i32 %4, %5
  %inc = add nuw i64 %i.015, 1
  %exitcond.not = icmp ne i64 %inc, %umax
  %or.cond.not = select i1 %cmp7.not, i1 %exitcond.not, i1 false
  br i1 %or.cond.not, label %for.body, label %return, !llvm.loop !47

return:                                           ; preds = %for.body, %if.end, %entry
  %retval.0 = phi i1 [ false, %entry ], [ true, %if.end ], [ %cmp7.not, %for.body ]
  ret i1 %retval.0
}